target datalayout = "e-m:e-p270:32:32-p271:32:32-p272:64:64-i64:64-i128:128-f80:128-n8:16:32:64-S128"
target triple = "x86_64-pc-linux-gnu"

; Function Attrs: nounwind uwtable
define internal void @btn_dec_event_handler(ptr noundef %0) #0 {
  %2 = alloca ptr, align 8
  %3 = alloca ptr, align 8
  %4 = alloca i32, align 4
  store ptr %0, ptr %2, align 8, !tbaa !3
  call void @llvm.lifetime.start.p0(i64 8, ptr %3) #5
  %5 = load ptr, ptr %2, align 8, !tbaa !3
  %6 = call ptr @lv_event_get_user_data(ptr noundef %5)
  store ptr %6, ptr %3, align 8, !tbaa !3
  call void @llvm.lifetime.start.p0(i64 4, ptr %4) #5
  %7 = load ptr, ptr %2, align 8, !tbaa !3
  %8 = call i32 @lv_event_get_code(ptr noundef %7)
  store i32 %8, ptr %4, align 4, !tbaa !40
  %9 = load i32, ptr %4, align 4, !tbaa !40
  %10 = icmp eq i32 %9, 4
  br i1 %10, label %14, label %11

11:                                               ; preds = %1
  %12 = load i32, ptr %4, align 4, !tbaa !40
  %13 = icmp eq i32 %12, 9
  br i1 %13, label %14, label %16

14:                                               ; preds = %11, %1
  %15 = load ptr, ptr %3, align 8, !tbaa !3
  call void @lv_spinbox_decrement(ptr noundef %15)
  br label %16

16:                                               ; preds = %14, %11
  call void @llvm.lifetime.end.p0(i64 4, ptr %4) #5
  call void @llvm.lifetime.end.p0(i64 8, ptr %3) #5
  ret void
}